; Function Attrs: mustprogress uwtable
define dso_local void @_ZN22btBvhTriangleMeshShapeC2EP23btStridingMeshInterfacebb(ptr noundef nonnull align 8 dereferenceable(109) %this, ptr noundef %meshInterface, i1 noundef zeroext %useQuantizedAabbCompression, i1 noundef zeroext %buildBvh) unnamed_addr #0 align 2 personality ptr @__gxx_personality_v0 {
entry:
  %frombool = zext i1 %useQuantizedAabbCompression to i8
  tail call void @_ZN19btTriangleMeshShapeC2EP23btStridingMeshInterface(ptr noundef nonnull align 8 dereferenceable(80) %this, ptr noundef %meshInterface)
  store ptr getelementptr inbounds ({ [23 x ptr] }, ptr @_ZTV22btBvhTriangleMeshShape, i64 0, i32 0, i64 2), ptr %this, align 8
  %m_bvh = getelementptr inbounds i8, ptr %this, i64 80
  %m_useQuantizedAabbCompression = getelementptr inbounds i8, ptr %this, i64 96
  tail call void @llvm.memset.p0.i64(ptr noundef nonnull align 8 dereferenceable(16) %m_bvh, i8 0, i64 16, i1 false)
  store i8 %frombool, ptr %m_useQuantizedAabbCompression, align 8
  %m_ownsBvh = getelementptr inbounds i8, ptr %this, i64 97
  store i8 0, ptr %m_ownsBvh, align 1
  %m_shapeType = getelementptr inbounds i8, ptr %this, i64 8
  store i32 21, ptr %m_shapeType, align 8
  br i1 %buildBvh, label %if.end.i, label %if.end

if.end.i:                                         ; preds = %entry
  %call.i1 = invoke noundef ptr @_Z22btAlignedAllocInternalmi(i64 noundef 248, i32 noundef 16)
          to label %call.i.noexc unwind label %lpad

call.i.noexc:                                     ; preds = %if.end.i
  invoke void @_ZN14btOptimizedBvhC1Ev(ptr noundef nonnull align 8 dereferenceable(244) %call.i1)
          to label %.noexc2 unwind label %lpad

.noexc2:                                          ; preds = %call.i.noexc
  store ptr %call.i1, ptr %m_bvh, align 8
  %m_meshInterface.i = getelementptr inbounds i8, ptr %this, i64 72
  %0 = load ptr, ptr %m_meshInterface.i, align 8
  %1 = load i8, ptr %m_useQuantizedAabbCompression, align 8
  %2 = and i8 %1, 1
  %tobool6.i = icmp ne i8 %2, 0
  %m_localAabbMin.i = getelementptr inbounds i8, ptr %this, i64 36
  %m_localAabbMax.i = getelementptr inbounds i8, ptr %this, i64 52
  invoke void @_ZN14btOptimizedBvh5buildEP23btStridingMeshInterfacebRK9btVector3S4_(ptr noundef nonnull align 8 dereferenceable(244) %call.i1, ptr noundef %0, i1 noundef zeroext %tobool6.i, ptr noundef nonnull align 4 dereferenceable(16) %m_localAabbMin.i, ptr noundef nonnull align 4 dereferenceable(16) %m_localAabbMax.i)
          to label %_ZN22btBvhTriangleMeshShape17buildOptimizedBvhEv.exit unwind label %lpad

_ZN22btBvhTriangleMeshShape17buildOptimizedBvhEv.exit: ; preds = %.noexc2
  store i8 1, ptr %m_ownsBvh, align 1
  br label %if.end

lpad:                                             ; preds = %.noexc2, %call.i.noexc, %if.end.i
  %3 = landingpad { ptr, i32 }
          cleanup
  tail call void @_ZN19btTriangleMeshShapeD2Ev(ptr noundef nonnull align 8 dereferenceable(80) %this) #10
  resume { ptr, i32 } %3

if.end:                                           ; preds = %_ZN22btBvhTriangleMeshShape17buildOptimizedBvhEv.exit, %entry
  ret void
}